target datalayout = "e-m:e-p270:32:32-p271:32:32-p272:64:64-i64:64-i128:128-f80:128-n8:16:32:64-S128"
target triple = "x86_64-pc-linux-gnu"

@the_repository = external global ptr, align 8
@.str.112 = private unnamed_addr constant [20 x i8] c"NOTES_MERGE_PARTIAL\00", align 1
@.str.113 = private unnamed_addr constant [16 x i8] c"NOTES_MERGE_REF\00", align 1
@.str.121 = private unnamed_addr constant [41 x i8] c"failed to delete ref NOTES_MERGE_PARTIAL\00", align 1
@.str.122 = private unnamed_addr constant [37 x i8] c"failed to delete ref NOTES_MERGE_REF\00", align 1
@.str.123 = private unnamed_addr constant [44 x i8] c"failed to remove 'git notes merge' worktree\00", align 1
@.str.157 = private unnamed_addr constant [1 x i8] zeroinitializer, align 1
@git_gettext_enabled = external global i32, align 4

; Function Attrs: inlinehint nounwind uwtable
define internal i32 @const_error() #3 {
  ret i32 -1
}

; Function Attrs: inlinehint nounwind uwtable
define internal ptr @_(ptr noundef %0) #3 {
  %2 = alloca ptr, align 8
  %3 = alloca ptr, align 8
  store ptr %0, ptr %3, align 8, !tbaa !11
  %4 = load ptr, ptr %3, align 8, !tbaa !11
  %5 = load i8, ptr %4, align 1, !tbaa !58
  %6 = icmp ne i8 %5, 0
  br i1 %6, label %8, label %7

7:                                                ; preds = %1
  store ptr @.str.157, ptr %2, align 8
  br label %16

8:                                                ; preds = %1
  %9 = load i32, ptr @git_gettext_enabled, align 4, !tbaa !4
  %10 = icmp ne i32 %9, 0
  br i1 %10, label %13, label %11

11:                                               ; preds = %8
  %12 = load ptr, ptr %3, align 8, !tbaa !11
  store ptr %12, ptr %2, align 8
  br label %16

13:                                               ; preds = %8
  %14 = load ptr, ptr %3, align 8, !tbaa !11
  %15 = call ptr @dcgettext(ptr noundef null, ptr noundef %14, i32 noundef 5) #11
  store ptr %15, ptr %2, align 8
  br label %16

16:                                               ; preds = %13, %11, %7
  %17 = load ptr, ptr %2, align 8
  ret ptr %17
}

; Function Attrs: nounwind uwtable
define internal i32 @merge_abort(ptr noundef %0) #0 {
  %2 = alloca ptr, align 8
  %3 = alloca i32, align 4
  store ptr %0, ptr %2, align 8, !tbaa !94
  call void @llvm.lifetime.start.p0(i64 4, ptr %3) #11
  store i32 0, ptr %3, align 4, !tbaa !4
  %4 = load ptr, ptr @the_repository, align 8, !tbaa !13
  %5 = call ptr @get_main_ref_store(ptr noundef %4)
  %6 = call i32 @refs_delete_ref(ptr noundef %5, ptr noundef null, ptr noundef @.str.112, ptr noundef null, i32 noundef 0)
  %7 = icmp ne i32 %6, 0
  br i1 %7, label %8, label %14

8:                                                ; preds = %1
  %9 = call ptr @_(ptr noundef @.str.121)
  %10 = call i32 (ptr, ...) @error(ptr noundef %9)
  %11 = call i32 @const_error()
  %12 = load i32, ptr %3, align 4, !tbaa !4
  %13 = add nsw i32 %12, %11
  store i32 %13, ptr %3, align 4, !tbaa !4
  br label %14

14:                                               ; preds = %8, %1
  %15 = load ptr, ptr @the_repository, align 8, !tbaa !13
  %16 = call ptr @get_main_ref_store(ptr noundef %15)
  %17 = call i32 @refs_delete_ref(ptr noundef %16, ptr noundef null, ptr noundef @.str.113, ptr noundef null, i32 noundef 1)
  %18 = icmp ne i32 %17, 0
  br i1 %18, label %19, label %25

19:                                               ; preds = %14
  %20 = call ptr @_(ptr noundef @.str.122)
  %21 = call i32 (ptr, ...) @error(ptr noundef %20)
  %22 = call i32 @const_error()
  %23 = load i32, ptr %3, align 4, !tbaa !4
  %24 = add nsw i32 %23, %22
  store i32 %24, ptr %3, align 4, !tbaa !4
  br label %25

25:                                               ; preds = %19, %14
  %26 = load ptr, ptr %2, align 8, !tbaa !94
  %27 = call i32 @notes_merge_abort(ptr noundef %26)
  %28 = icmp ne i32 %27, 0
  br i1 %28, label %29, label %35

29:                                               ; preds = %25
  %30 = call ptr @_(ptr noundef @.str.123)
  %31 = call i32 (ptr, ...) @error(ptr noundef %30)
  %32 = call i32 @const_error()
  %33 = load i32, ptr %3, align 4, !tbaa !4
  %34 = add nsw i32 %33, %32
  store i32 %34, ptr %3, align 4, !tbaa !4
  br label %35

35:                                               ; preds = %29, %25
  %36 = load i32, ptr %3, align 4, !tbaa !4
  call void @llvm.lifetime.end.p0(i64 4, ptr %3) #11
  ret i32 %36
}