; Function Attrs: nounwind uwtable
define internal fastcc range(i32 -3, 1) i32 @merge_abort(ptr noundef nonnull %0) unnamed_addr #0 {
  %2 = load ptr, ptr @the_repository, align 8, !tbaa !20
  %3 = tail call ptr @get_main_ref_store(ptr noundef %2) #16
  %4 = tail call i32 @refs_delete_ref(ptr noundef %3, ptr noundef null, ptr noundef nonnull @.str.112, ptr noundef null, i32 noundef 0) #16
  %.not = icmp eq i32 %4, 0
  br i1 %.not, label %10, label %5

5:                                                ; preds = %1
  %6 = load i32, ptr @git_gettext_enabled, align 4, !tbaa !24
  %.not4.i = icmp eq i32 %6, 0
  br i1 %.not4.i, label %_.exit, label %7

7:                                                ; preds = %5
  %8 = tail call ptr @dcgettext(ptr noundef null, ptr noundef nonnull @.str.121, i32 noundef 5) #16
  br label %_.exit

_.exit:                                           ; preds = %5, %7
  %.0.i = phi ptr [ %8, %7 ], [ @.str.121, %5 ]
  %9 = tail call i32 (ptr, ...) @error(ptr noundef %.0.i) #16
  br label %10

10:                                               ; preds = %_.exit, %1
  %.0 = phi i32 [ -1, %_.exit ], [ 0, %1 ]
  %11 = load ptr, ptr @the_repository, align 8, !tbaa !20
  %12 = tail call ptr @get_main_ref_store(ptr noundef %11) #16
  %13 = tail call i32 @refs_delete_ref(ptr noundef %12, ptr noundef null, ptr noundef nonnull @.str.113, ptr noundef null, i32 noundef 1) #16
  %.not4 = icmp eq i32 %13, 0
  br i1 %.not4, label %20, label %14

14:                                               ; preds = %10
  %15 = load i32, ptr @git_gettext_enabled, align 4, !tbaa !24
  %.not4.i6 = icmp eq i32 %15, 0
  br i1 %.not4.i6, label %_.exit8, label %16

16:                                               ; preds = %14
  %17 = tail call ptr @dcgettext(ptr noundef null, ptr noundef nonnull @.str.122, i32 noundef 5) #16
  br label %_.exit8

_.exit8:                                          ; preds = %14, %16
  %.0.i7 = phi ptr [ %17, %16 ], [ @.str.122, %14 ]
  %18 = tail call i32 (ptr, ...) @error(ptr noundef %.0.i7) #16
  %19 = add nsw i32 %.0, -1
  br label %20

20:                                               ; preds = %_.exit8, %10
  %.1 = phi i32 [ %19, %_.exit8 ], [ %.0, %10 ]
  %21 = tail call i32 @notes_merge_abort(ptr noundef nonnull %0) #16
  %.not5 = icmp eq i32 %21, 0
  br i1 %.not5, label %28, label %22

22:                                               ; preds = %20
  %23 = load i32, ptr @git_gettext_enabled, align 4, !tbaa !24
  %.not4.i9 = icmp eq i32 %23, 0
  br i1 %.not4.i9, label %_.exit11, label %24

24:                                               ; preds = %22
  %25 = tail call ptr @dcgettext(ptr noundef null, ptr noundef nonnull @.str.123, i32 noundef 5) #16
  br label %_.exit11

_.exit11:                                         ; preds = %22, %24
  %.0.i10 = phi ptr [ %25, %24 ], [ @.str.123, %22 ]
  %26 = tail call i32 (ptr, ...) @error(ptr noundef %.0.i10) #16
  %27 = add nsw i32 %.1, -1
  br label %28

28:                                               ; preds = %_.exit11, %20
  %.2 = phi i32 [ %27, %_.exit11 ], [ %.1, %20 ]
  ret i32 %.2
}